; Function Attrs: inlinehint nounwind uwtable
define internal fastcc range(i64 0, 2) i64 @rioRead(ptr noundef nonnull %0, i64 noundef range(i64 1, 10) %1) unnamed_addr #9 {
  %3 = load i64, ptr getelementptr inbounds nuw (i8, ptr @redis_check_rdb.rdb, i64 48), align 8, !tbaa !33
  %4 = and i64 %3, 5
  %.not = icmp eq i64 %4, 0
  br i1 %.not, label %.preheader, label %.loopexit

.preheader:                                       ; preds = %2, %16
  %.0255 = phi i64 [ %18, %16 ], [ %1, %2 ]
  %.0274 = phi ptr [ %17, %16 ], [ %0, %2 ]
  %5 = load i64, ptr getelementptr inbounds nuw (i8, ptr @redis_check_rdb.rdb, i64 64), align 8, !tbaa !34
  %.not32.not = icmp eq i64 %5, 0
  %6 = tail call i64 @llvm.umin.i64(i64 %5, i64 %.0255)
  %7 = select i1 %.not32.not, i64 %.0255, i64 %6
  %8 = load ptr, ptr @redis_check_rdb.rdb, align 8, !tbaa !35
  %9 = tail call i64 %8(ptr noundef nonnull @redis_check_rdb.rdb, ptr noundef %.0274, i64 noundef %7) #15
  %10 = icmp eq i64 %9, 0
  br i1 %10, label %.thread, label %13

.thread:                                          ; preds = %.preheader
  %11 = load i64, ptr getelementptr inbounds nuw (i8, ptr @redis_check_rdb.rdb, i64 48), align 8, !tbaa !33
  %12 = or i64 %11, 1
  store i64 %12, ptr getelementptr inbounds nuw (i8, ptr @redis_check_rdb.rdb, i64 48), align 8, !tbaa !33
  br label %.loopexit

13:                                               ; preds = %.preheader
  %14 = load ptr, ptr getelementptr inbounds nuw (i8, ptr @redis_check_rdb.rdb, i64 32), align 8, !tbaa !32
  %.not33 = icmp eq ptr %14, null
  br i1 %.not33, label %16, label %15

15:                                               ; preds = %13
  tail call void %14(ptr noundef nonnull @redis_check_rdb.rdb, ptr noundef %.0274, i64 noundef %7) #15
  br label %16

16:                                               ; preds = %13, %15
  %17 = getelementptr inbounds nuw i8, ptr %.0274, i64 %7
  %18 = sub i64 %.0255, %7
  %19 = load i64, ptr getelementptr inbounds nuw (i8, ptr @redis_check_rdb.rdb, i64 56), align 8, !tbaa !18
  %20 = add i64 %19, %7
  store i64 %20, ptr getelementptr inbounds nuw (i8, ptr @redis_check_rdb.rdb, i64 56), align 8, !tbaa !18
  %.not31 = icmp eq i64 %18, 0
  br i1 %.not31, label %.loopexit, label %.preheader

.loopexit:                                        ; preds = %16, %.thread, %2
  %.024 = phi i64 [ 0, %2 ], [ 0, %.thread ], [ 1, %16 ]
  ret i64 %.024
}